; Function Attrs: mustprogress nofree norecurse nosync nounwind willreturn memory(read, inaccessiblemem: none) uwtable
define dso_local noundef zeroext i1 @_ZNK6Effect10is_writtenEPK8Variable(ptr noundef nonnull readonly align 8 captures(none) dereferenceable(74) %0, ptr noundef readonly captures(address) %1) local_unnamed_addr #7 align 2 {
  %3 = getelementptr inbounds nuw i8, ptr %0, i64 24
  %4 = getelementptr inbounds nuw i8, ptr %0, i64 32
  %5 = load ptr, ptr %4, align 8, !tbaa !16
  %6 = load ptr, ptr %3, align 8, !tbaa !17
  %.not13 = icmp eq ptr %5, %6
  br i1 %.not13, label %.loopexit, label %tailrecurse.us.preheader

tailrecurse.us.preheader:                         ; preds = %2
  %7 = ptrtoint ptr %5 to i64
  %8 = ptrtoint ptr %6 to i64
  %9 = sub i64 %7, %8
  %10 = ashr exact i64 %9, 3
  %umax = tail call i64 @llvm.umax.i64(i64 %10, i64 1)
  br label %tailrecurse.us

tailrecurse.us:                                   ; preds = %tailrecurse.us.preheader, %._crit_edge.us
  %.tr10.us = phi ptr [ %18, %._crit_edge.us ], [ %1, %tailrecurse.us.preheader ]
  br label %13

11:                                               ; preds = %13
  %12 = add nuw i64 %.012.us, 1
  %exitcond.not = icmp eq i64 %12, %umax
  br i1 %exitcond.not, label %._crit_edge.us, label %13, !llvm.loop !73

13:                                               ; preds = %tailrecurse.us, %11
  %.012.us = phi i64 [ 0, %tailrecurse.us ], [ %12, %11 ]
  %14 = getelementptr inbounds nuw ptr, ptr %6, i64 %.012.us
  %15 = load ptr, ptr %14, align 8, !tbaa !23
  %16 = icmp eq ptr %15, %.tr10.us
  br i1 %16, label %.loopexit, label %11

._crit_edge.us:                                   ; preds = %11
  %17 = getelementptr inbounds nuw i8, ptr %.tr10.us, i64 88
  %18 = load ptr, ptr %17, align 8, !tbaa !48
  %.not.us = icmp eq ptr %18, null
  br i1 %.not.us, label %.loopexit, label %tailrecurse.us

.loopexit:                                        ; preds = %._crit_edge.us, %13, %2
  %.08 = phi i1 [ false, %2 ], [ true, %13 ], [ false, %._crit_edge.us ]
  ret i1 %.08
}